target datalayout = "e-m:e-p270:32:32-p271:32:32-p272:64:64-i64:64-i128:128-f80:128-n8:16:32:64-S128"
target triple = "x86_64-pc-linux-gnu"

%struct.Qureg = type { i32, i32, i32, i64, i64, i32, i32, %struct.ComplexArray, %struct.ComplexArray, %struct.ComplexArray, ptr, ptr, ptr, ptr, ptr, ptr }
%struct.ComplexArray = type { ptr, ptr }
%struct.QASMLogger = type { ptr, i32, i32, i32 }

; Function Attrs: nounwind uwtable
define void @qasm_recordMultiControlledGate(ptr noundef byval(%struct.Qureg) align 8 %0, i32 noundef %1, ptr noundef %2, i32 noundef %3, i32 noundef %4) #0 {
  %6 = alloca i32, align 4
  %7 = alloca ptr, align 8
  %8 = alloca i32, align 4
  %9 = alloca i32, align 4
  store i32 %1, ptr %6, align 4, !tbaa !25
  store ptr %2, ptr %7, align 8, !tbaa !26
  store i32 %3, ptr %8, align 4, !tbaa !25
  store i32 %4, ptr %9, align 4, !tbaa !25
  %10 = getelementptr inbounds nuw %struct.Qureg, ptr %0, i32 0, i32 15
  %11 = load ptr, ptr %10, align 8, !tbaa !10
  %12 = getelementptr inbounds nuw %struct.QASMLogger, ptr %11, i32 0, i32 3
  %13 = load i32, ptr %12, align 8, !tbaa !17
  %14 = icmp ne i32 %13, 0
  br i1 %14, label %16, label %15

15:                                               ; preds = %5
  br label %21

16:                                               ; preds = %5
  %17 = load i32, ptr %6, align 4, !tbaa !25
  %18 = load ptr, ptr %7, align 8, !tbaa !26
  %19 = load i32, ptr %8, align 4, !tbaa !25
  %20 = load i32, ptr %9, align 4, !tbaa !25
  call void @addGateToQASM(ptr noundef byval(%struct.Qureg) align 8 %0, i32 noundef %17, ptr noundef %18, i32 noundef %19, i32 noundef %20, ptr noundef null, i32 noundef 0)
  br label %21

21:                                               ; preds = %16, %15
  ret void
}